target datalayout = "e-m:e-p270:32:32-p271:32:32-p272:64:64-i64:64-i128:128-f80:128-n8:16:32:64-S128"
target triple = "x86_64-pc-linux-gnu"

; Function Attrs: mustprogress nounwind uwtable
define dso_local noundef signext i8 @_ZN6icu_779ScriptRun10sameScriptEii(i32 noundef %0, i32 noundef %1) #1 align 2 {
  %3 = alloca i32, align 4
  %4 = alloca i32, align 4
  store i32 %0, ptr %3, align 4, !tbaa !4
  store i32 %1, ptr %4, align 4, !tbaa !4
  %5 = load i32, ptr %3, align 4, !tbaa !4
  %6 = icmp sle i32 %5, 1
  br i1 %6, label %14, label %7

7:                                                ; preds = %2
  %8 = load i32, ptr %4, align 4, !tbaa !4
  %9 = icmp sle i32 %8, 1
  br i1 %9, label %14, label %10

10:                                               ; preds = %7
  %11 = load i32, ptr %3, align 4, !tbaa !4
  %12 = load i32, ptr %4, align 4, !tbaa !4
  %13 = icmp eq i32 %11, %12
  br label %14

14:                                               ; preds = %10, %7, %2
  %15 = phi i1 [ true, %7 ], [ true, %2 ], [ %13, %10 ]
  %16 = zext i1 %15 to i8
  ret i8 %16
}