; Function Attrs: mustprogress nofree norecurse nosync nounwind willreturn memory(none) uwtable
define dso_local noundef signext range(i8 0, 2) i8 @_ZN6icu_779ScriptRun10sameScriptEii(i32 noundef %0, i32 noundef %1) local_unnamed_addr #0 align 2 {
  %3 = icmp slt i32 %0, 2
  %4 = icmp slt i32 %1, 2
  %or.cond = or i1 %3, %4
  %5 = icmp eq i32 %0, %1
  %narrow = or i1 %5, %or.cond
  %6 = zext i1 %narrow to i8
  ret i8 %6
}